Certificate:
    Data:
        Version: 3 (0x2)
        Serial Number: 2 (0x2)
        Signature Algorithm: sha1WithRSAEncryption
        Issuer: C=BA, ST=RS, L=Banja Luka, O=Elektrotehnicki fakultet, OU=ETF, CN=rootca/emailAddress=rootca@mail.com
        Validity
            Not Before: Feb 26 13:33:57 2022 GMT
            Not After : Feb 26 13:33:57 2023 GMT
        Subject: C=BA, ST=RS, O=Elektrotehnicki fakultet, OU=ETF, CN=caB/emailAddress=caB@mail.com
        Subject Public Key Info:
            Public Key Algorithm: rsaEncryption
                RSA Public-Key: (2048 bit)
                Modulus:
                    00:cd:9f:c3:b1:5a:f2:7a:f6:2e:a6:e2:e1:e1:db:
                    cc:76:a5:73:f6:ee:79:dd:89:99:96:9d:76:82:d1:
                    4e:a2:16:8d:46:96:c9:94:4f:35:43:35:ad:67:bd:
                    94:60:6a:77:34:e8:70:29:42:b6:de:cc:6f:8a:42:
                    9a:6d:63:fe:e2:41:f7:c1:9b:30:5a:fd:95:b9:0e:
                    8d:aa:a7:c0:33:f1:7c:d8:78:78:7a:f2:af:6b:e0:
                    5a:1d:23:53:3d:4e:14:c1:6b:ae:10:fc:4b:b4:02:
                    61:07:bb:c2:7f:11:94:1a:25:d1:17:8e:12:2a:39:
                    18:97:db:bc:c0:c3:4f:79:84:b1:5a:13:29:a9:e1:
                    00:1c:ed:ac:5c:cf:a1:03:53:04:18:45:25:2e:9f:
                    13:a1:49:e5:51:26:d6:77:27:01:ee:ad:4a:62:f0:
                    ab:34:48:34:ff:89:cd:61:9f:cc:c2:e0:8a:02:ea:
                    bf:0f:20:60:9c:b4:29:0a:d3:4c:23:f7:45:a5:14:
                    5f:de:34:dc:a9:ae:8c:66:ce:9d:2d:e7:f6:95:62:
                    01:54:0a:13:89:f4:f0:1a:a4:6c:e3:f0:30:f6:01:
                    5d:5d:b1:7c:3c:cc:17:45:d1:68:96:20:c1:71:cc:
                    0f:6b:ec:2a:0c:ee:c4:de:aa:48:f1:7d:23:84:c9:
                    b8:0d
                Exponent: 65537 (0x10001)
        X509v3 extensions:
            X509v3 Basic Constraints: 
                CA:TRUE
            X509v3 Key Usage: 
                Digital Signature, Non Repudiation, Key Encipherment, Data Encipherment, Key Agreement, Certificate Sign, CRL Sign
            X509v3 Extended Key Usage: 
                TLS Web Client Authentication, TLS Web Server Authentication
            Netscape Comment: 
                OpenSSL Generated Certificate
            X509v3 Subject Key Identifier: 
                4E:58:60:A4:E6:76:78:0F:22:AF:9E:7E:39:C7:18:F7:36:7C:84:73
            X509v3 Authority Key Identifier: 
                keyid:F5:34:97:9C:9A:65:2D:25:18:EB:B1:42:82:A5:D6:32:31:FE:54:32

            X509v3 CRL Distribution Points: 

                Full Name:
                  URI:http://192.168.21.89/rootcrl.pem

    Signature Algorithm: sha1WithRSAEncryption
         09:ec:0c:1a:09:2a:cf:44:b6:28:5b:2c:2b:54:73:d3:69:e2:
         05:2d:cb:d8:a4:69:3a:d1:7b:50:a7:7b:5d:2d:6c:7e:f5:5b:
         b9:53:aa:5d:7c:06:b0:d3:38:22:a8:58:02:a4:b8:e3:e6:38:
         78:32:f3:94:30:22:b4:01:16:46:65:f3:32:fa:ba:86:6b:45:
         05:8b:f1:5c:44:d1:48:03:ec:90:99:3e:b2:9a:44:7e:40:0f:
         7e:a2:8f:08:5a:c1:e1:97:25:18:eb:a0:e4:a1:c5:69:90:a3:
         b3:ad:d7:47:ef:76:de:88:ac:bf:40:5d:48:c0:21:ab:ab:3e:
         b6:98:1c:b9:d5:7c:e4:30:6b:d9:93:3f:03:10:f7:20:ca:c7:
         a2:a6:9f:5f:21:81:87:70:b7:a5:2b:66:b0:8e:ea:0e:33:3e:
         a5:42:39:d9:a0:a2:c5:2a:a0:96:3a:48:ae:b6:13:73:71:39:
         e0:3c:d7:f2:ec:b7:23:ef:a1:44:83:2d:07:75:b3:4a:d9:ea:
         09:c0:7d:2c:cc:0f:1f:12:33:e4:a1:d7:f5:11:14:56:98:b9:
         7c:59:28:fd:9c:dc:b1:37:a5:da:81:56:1b:73:5e:27:bc:2e:
         8c:0f:0c:97:e6:82:67:6c:f5:90:f1:0f:58:df:12:a9:da:cc:
         aa:f7:cd:ce:aa:02:1f:5d:45:a0:0d:86:c5:9f:9f:0a:fd:6b:
         28:cf:b9:71:0b:55:f4:dc:61:cf:6a:e4:d2:36:b7:44:59:54:
         a5:97:43:52:61:af:32:c3:b8:d9:cf:48:d6:a0:0b:74:d3:18:
         39:f9:b4:6f:f4:3b:90:c2:b1:6a:17:f5:e7:96:b9:62:91:88:
         b1:08:e1:5d:ba:3e:de:49:0b:50:0c:98:d8:b3:44:12:d7:68:
         ac:c3:1c:f2:e7:ef:ba:05:29:67:63:35:8e:50:7a:d4:e7:b4:
         62:c4:59:4b:c2:d1:de:e9:78:3d:0c:cd:4b:71:13:b7:e1:7b:
         89:d3:27:7e:4c:8a:61:64:ee:a0:d1:21:bc:5a:97:0d:7e:18:
         c2:bd:1b:20:3c:f7:3d:c5:67:cc:65:e5:d6:18:79:1f:05:fe:
         f8:80:f2:67:87:6e:02:77:a4:ad:fa:65:e9:2e:bf:ab:e4:d4:
         52:f1:34:50:2c:9e:c6:2c:71:ac:ea:39:ad:15:35:a6:91:7d:
         8b:bf:7b:ea:78:12:29:4f:04:51:30:f6:57:87:48:d6:68:47:
         1c:af:da:63:4a:45:45:66:37:24:0c:76:87:07:fd:8b:29:52:
         de:da:48:16:05:2b:19:40:98:ef:4d:e6:02:ad:6d:ec:71:c7:
         9b:26:27:65:55:56:be:74
-----BEGIN CERTIFICATE-----
MIIFYjCCA0qgAwIBAgIBAjANBgkqhkiG9w0BAQUFADCBkTELMAkGA1UEBhMCQkEx
CzAJBgNVBAgTAlJTMRMwEQYDVQQHEwpCYW5qYSBMdWthMSEwHwYDVQQKExhFbGVr
dHJvdGVobmlja2kgZmFrdWx0ZXQxDDAKBgNVBAsTA0VURjEPMA0GA1UEAxMGcm9v
dGNhMR4wHAYJKoZIhvcNAQkBFg9yb290Y2FAbWFpbC5jb20wHhcNMjIwMjI2MTMz
MzU3WhcNMjMwMjI2MTMzMzU3WjB2MQswCQYDVQQGEwJCQTELMAkGA1UECBMCUlMx
ITAfBgNVBAoTGEVsZWt0cm90ZWhuaWNraSBmYWt1bHRldDEMMAoGA1UECxMDRVRG
MQwwCgYDVQQDEwNjYUIxGzAZBgkqhkiG9w0BCQEWDGNhQkBtYWlsLmNvbTCCASIw
DQYJKoZIhvcNAQEBBQADggEPADCCAQoCggEBAM2fw7Fa8nr2Lqbi4eHbzHalc/bu
ed2JmZaddoLRTqIWjUaWyZRPNUM1rWe9lGBqdzTocClCtt7Mb4pCmm1j/uJB98Gb
MFr9lbkOjaqnwDPxfNh4eHryr2vgWh0jUz1OFMFrrhD8S7QCYQe7wn8RlBol0ReO
Eio5GJfbvMDDT3mEsVoTKanhABztrFzPoQNTBBhFJS6fE6FJ5VEm1ncnAe6tSmLw
qzRINP+JzWGfzMLgigLqvw8gYJy0KQrTTCP3RaUUX9403KmujGbOnS3n9pViAVQK
E4n08BqkbOPwMPYBXV2xfDzMF0XRaJYgwXHMD2vsKgzuxN6qSPF9I4TJuA0CAwEA
AaOB3jCB2zAMBgNVHRMEBTADAQH/MAsGA1UdDwQEAwIB/jAdBgNVHSUEFjAUBggr
BgEFBQcDAgYIKwYBBQUHAwEwLAYJYIZIAYb4QgENBB8WHU9wZW5TU0wgR2VuZXJh
dGVkIENlcnRpZmljYXRlMB0GA1UdDgQWBBROWGCk5nZ4DyKvnn45xxj3NnyEczAf
BgNVHSMEGDAWgBT1NJecmmUtJRjrsUKCpdYyMf5UMjAxBgNVHR8EKjAoMCagJKAi
hiBodHRwOi8vMTkyLjE2OC4yMS44OS9yb290Y3JsLnBlbTANBgkqhkiG9w0BAQUF
AAOCAgEACewMGgkqz0S2KFssK1Rz02niBS3L2KRpOtF7UKd7XS1sfvVbuVOqXXwG
sNM4IqhYAqS44+Y4eDLzlDAitAEWRmXzMvq6hmtFBYvxXETRSAPskJk+sppEfkAP
fqKPCFrB4ZclGOug5KHFaZCjs63XR+923oisv0BdSMAhq6s+tpgcudV85DBr2ZM/
AxD3IMrHoqafXyGBh3C3pStmsI7qDjM+pUI52aCixSqgljpIrrYTc3E54DzX8uy3
I++hRIMtB3WzStnqCcB9LMwPHxIz5KHX9REUVpi5fFko/ZzcsTel2oFWG3NeJ7wu
jA8Ml+aCZ2z1kPEPWN8SqdrMqvfNzqoCH11FoA2GxZ+fCv1rKM+5cQtV9Nxhz2rk
0ja3RFlUpZdDUmGvMsO42c9I1qALdNMYOfm0b/Q7kMKxahf155a5YpGIsQjhXbo+
3kkLUAyY2LNEEtdorMMc8ufvugUpZ2M1jlB61Oe0YsRZS8LR3ul4PQzNS3ETt+F7
idMnfkyKYWTuoNEhvFqXDX4Ywr0bIDz3PcVnzGXl1hh5HwX++IDyZ4duAnekrfpl
6S6/q+TUUvE0UCyexixxrOo5rRU1ppF9i7976ngSKU8EUTD2V4dI1mhHHK/aY0pF
RWY3JAx2hwf9iylS3tpIFgUrGUCY703mAq1t7HHHmyYnZVVWvnQ=
-----END CERTIFICATE-----
